target datalayout = "e-m:e-p270:32:32-p271:32:32-p272:64:64-i64:64-i128:128-f80:128-n8:16:32:64-S128"
target triple = "x86_64-pc-linux-gnu"

%struct.nghttp2_session = type { %struct.nghttp2_map, %struct.nghttp2_outbound_queue, %struct.nghttp2_outbound_queue, %struct.nghttp2_outbound_queue, [8 x %struct.anon], %struct.nghttp2_active_outbound_item, %struct.nghttp2_inbound_frame, %struct.nghttp2_hd_deflater, %struct.nghttp2_hd_inflater, %struct.nghttp2_session_callbacks, %struct.nghttp2_mem, ptr, ptr, %struct.nghttp2_ratelim, i64, i64, i64, i64, i64, i64, i64, i64, i64, i64, i64, i64, i64, i64, i32, i32, i32, i32, i32, i32, i32, i32, i32, i32, i32, i32, i8, %struct.nghttp2_settings_storage, %struct.nghttp2_settings_storage, i32, i32, i32, i8, i8, i8, i8, i8, i8, [32 x i8] }
%struct.nghttp2_map = type { ptr, ptr, i64, i64 }
%struct.nghttp2_outbound_queue = type { ptr, ptr, i64 }
%struct.anon = type { %struct.nghttp2_pq }
%struct.nghttp2_pq = type { ptr, ptr, i64, i64, ptr }
%struct.nghttp2_active_outbound_item = type { ptr, %struct.nghttp2_bufs, i32 }
%struct.nghttp2_bufs = type { ptr, ptr, ptr, i64, i64, i64, i64, i64 }
%struct.nghttp2_inbound_frame = type { %union.nghttp2_frame, %union.nghttp2_ext_frame_payload, ptr, %struct.nghttp2_buf, %struct.nghttp2_buf, ptr, i64, i64, i64, i64, i32, [32 x i8] }
%union.nghttp2_frame = type { %struct.nghttp2_headers }
%struct.nghttp2_headers = type { %struct.nghttp2_frame_hd, i64, %struct.nghttp2_priority_spec, ptr, i64, i32 }
%struct.nghttp2_frame_hd = type { i64, i32, i8, i8, i8 }
%struct.nghttp2_priority_spec = type { i32, i32, i8 }
%union.nghttp2_ext_frame_payload = type { %struct.nghttp2_ext_altsvc }
%struct.nghttp2_ext_altsvc = type { ptr, i64, ptr, i64 }
%struct.nghttp2_buf = type { ptr, ptr, ptr, ptr, ptr }
%struct.nghttp2_hd_deflater = type { %struct.nghttp2_hd_context, %struct.nghttp2_hd_map, i64, i64, i8 }
%struct.nghttp2_hd_context = type { %struct.nghttp2_hd_ringbuf, ptr, i64, i64, i32, i8 }
%struct.nghttp2_hd_ringbuf = type { ptr, i64, i64, i64 }
%struct.nghttp2_hd_map = type { [128 x ptr] }
%struct.nghttp2_hd_inflater = type { %struct.nghttp2_hd_context, %struct.nghttp2_hd_huff_decode_context, %struct.nghttp2_buf, %struct.nghttp2_buf, ptr, ptr, ptr, ptr, i64, i64, i64, i64, i64, i32, i32, i8, i8, i8 }
%struct.nghttp2_hd_huff_decode_context = type { i16 }
%struct.nghttp2_session_callbacks = type { ptr, ptr, ptr, ptr, ptr, ptr, ptr, ptr, ptr, ptr, ptr, ptr, ptr, ptr, ptr, ptr, ptr, ptr, ptr, ptr, ptr, ptr, ptr, ptr, ptr, ptr, ptr, ptr }
%struct.nghttp2_mem = type { ptr, ptr, ptr, ptr, ptr }
%struct.nghttp2_ratelim = type { i64, i64, i64, i64 }
%struct.nghttp2_settings_storage = type { i32, i32, i32, i32, i32, i32, i32, i32 }
%struct.nghttp2_settings = type { %struct.nghttp2_frame_hd, i64, ptr }

; Function Attrs: nounwind uwtable
define internal i32 @nghttp2_session_upgrade_internal(ptr noundef %0, ptr noundef %1, i64 noundef %2, ptr noundef %3) #0 {
  %5 = alloca i32, align 4
  %6 = alloca ptr, align 8
  %7 = alloca ptr, align 8
  %8 = alloca i64, align 8
  %9 = alloca ptr, align 8
  %10 = alloca ptr, align 8
  %11 = alloca %union.nghttp2_frame, align 8
  %12 = alloca ptr, align 8
  %13 = alloca i64, align 8
  %14 = alloca i32, align 4
  %15 = alloca ptr, align 8
  %16 = alloca i32, align 4
  store ptr %0, ptr %6, align 8, !tbaa !7
  store ptr %1, ptr %7, align 8, !tbaa !38
  store i64 %2, ptr %8, align 8, !tbaa !41
  store ptr %3, ptr %9, align 8, !tbaa !53
  call void @llvm.lifetime.start.p0(i64 8, ptr %10) #10
  call void @llvm.lifetime.start.p0(i64 64, ptr %11) #10
  call void @llvm.lifetime.start.p0(i64 8, ptr %12) #10
  call void @llvm.lifetime.start.p0(i64 8, ptr %13) #10
  call void @llvm.lifetime.start.p0(i64 4, ptr %14) #10
  call void @llvm.lifetime.start.p0(i64 8, ptr %15) #10
  %17 = load ptr, ptr %6, align 8, !tbaa !7
  %18 = getelementptr inbounds nuw %struct.nghttp2_session, ptr %17, i32 0, i32 10
  store ptr %18, ptr %15, align 8, !tbaa !53
  %19 = load ptr, ptr %6, align 8, !tbaa !7
  %20 = getelementptr inbounds nuw %struct.nghttp2_session, ptr %19, i32 0, i32 49
  %21 = load i8, ptr %20, align 1, !tbaa !42
  %22 = icmp ne i8 %21, 0
  br i1 %22, label %28, label %23

23:                                               ; preds = %4
  %24 = load ptr, ptr %6, align 8, !tbaa !7
  %25 = getelementptr inbounds nuw %struct.nghttp2_session, ptr %24, i32 0, i32 28
  %26 = load i32, ptr %25, align 8, !tbaa !56
  %27 = icmp ne i32 %26, 1
  br i1 %27, label %39, label %28

28:                                               ; preds = %23, %4
  %29 = load ptr, ptr %6, align 8, !tbaa !7
  %30 = getelementptr inbounds nuw %struct.nghttp2_session, ptr %29, i32 0, i32 49
  %31 = load i8, ptr %30, align 1, !tbaa !42
  %32 = zext i8 %31 to i32
  %33 = icmp ne i32 %32, 0
  br i1 %33, label %34, label %40

34:                                               ; preds = %28
  %35 = load ptr, ptr %6, align 8, !tbaa !7
  %36 = getelementptr inbounds nuw %struct.nghttp2_session, ptr %35, i32 0, i32 30
  %37 = load i32, ptr %36, align 8, !tbaa !138
  %38 = icmp sge i32 %37, 1
  br i1 %38, label %39, label %40

39:                                               ; preds = %34, %23
  store i32 -505, ptr %5, align 4
  store i32 1, ptr %16, align 4
  br label %123

40:                                               ; preds = %34, %28
  %41 = load i64, ptr %8, align 8, !tbaa !41
  %42 = urem i64 %41, 6
  %43 = icmp ne i64 %42, 0
  br i1 %43, label %44, label %45

44:                                               ; preds = %40
  store i32 -501, ptr %5, align 4
  store i32 1, ptr %16, align 4
  br label %123

45:                                               ; preds = %40
  %46 = load i64, ptr %8, align 8, !tbaa !41
  %47 = udiv i64 %46, 6
  %48 = load ptr, ptr %6, align 8, !tbaa !7
  %49 = getelementptr inbounds nuw %struct.nghttp2_session, ptr %48, i32 0, i32 25
  %50 = load i64, ptr %49, align 8, !tbaa !72
  %51 = icmp ugt i64 %47, %50
  br i1 %51, label %52, label %53

52:                                               ; preds = %45
  store i32 -537, ptr %5, align 4
  store i32 1, ptr %16, align 4
  br label %123

53:                                               ; preds = %45
  %54 = load ptr, ptr %7, align 8, !tbaa !38
  %55 = load i64, ptr %8, align 8, !tbaa !41
  %56 = load ptr, ptr %15, align 8, !tbaa !53
  %57 = call i32 @nghttp2_frame_unpack_settings_payload2(ptr noundef %12, ptr noundef %13, ptr noundef %54, i64 noundef %55, ptr noundef %56)
  store i32 %57, ptr %14, align 4, !tbaa !3
  %58 = load i32, ptr %14, align 4, !tbaa !3
  %59 = icmp ne i32 %58, 0
  br i1 %59, label %60, label %62

60:                                               ; preds = %53
  %61 = load i32, ptr %14, align 4, !tbaa !3
  store i32 %61, ptr %5, align 4
  store i32 1, ptr %16, align 4
  br label %123

62:                                               ; preds = %53
  %63 = load ptr, ptr %6, align 8, !tbaa !7
  %64 = getelementptr inbounds nuw %struct.nghttp2_session, ptr %63, i32 0, i32 49
  %65 = load i8, ptr %64, align 1, !tbaa !42
  %66 = icmp ne i8 %65, 0
  br i1 %66, label %67, label %75

67:                                               ; preds = %62
  %68 = load i64, ptr %8, align 8, !tbaa !41
  call void @nghttp2_frame_hd_init(ptr noundef %11, i64 noundef %68, i8 noundef zeroext 4, i8 noundef zeroext 0, i32 noundef 0)
  %69 = load ptr, ptr %12, align 8, !tbaa !53
  %70 = getelementptr inbounds nuw %struct.nghttp2_settings, ptr %11, i32 0, i32 2
  store ptr %69, ptr %70, align 8, !tbaa !117
  %71 = load i64, ptr %13, align 8, !tbaa !41
  %72 = getelementptr inbounds nuw %struct.nghttp2_settings, ptr %11, i32 0, i32 1
  store i64 %71, ptr %72, align 8, !tbaa !117
  %73 = load ptr, ptr %6, align 8, !tbaa !7
  %74 = call i32 @nghttp2_session_on_settings_received(ptr noundef %73, ptr noundef %11, i32 noundef 1)
  store i32 %74, ptr %14, align 4, !tbaa !3
  br label %80

75:                                               ; preds = %62
  %76 = load ptr, ptr %6, align 8, !tbaa !7
  %77 = load ptr, ptr %12, align 8, !tbaa !53
  %78 = load i64, ptr %13, align 8, !tbaa !41
  %79 = call i32 @nghttp2_submit_settings(ptr noundef %76, i8 noundef zeroext 0, ptr noundef %77, i64 noundef %78)
  store i32 %79, ptr %14, align 4, !tbaa !3
  br label %80

80:                                               ; preds = %75, %67
  %81 = load ptr, ptr %15, align 8, !tbaa !53
  %82 = load ptr, ptr %12, align 8, !tbaa !53
  call void @nghttp2_mem_free(ptr noundef %81, ptr noundef %82)
  %83 = load i32, ptr %14, align 4, !tbaa !3
  %84 = icmp ne i32 %83, 0
  br i1 %84, label %85, label %87

85:                                               ; preds = %80
  %86 = load i32, ptr %14, align 4, !tbaa !3
  store i32 %86, ptr %5, align 4
  store i32 1, ptr %16, align 4
  br label %123

87:                                               ; preds = %80
  %88 = load ptr, ptr %6, align 8, !tbaa !7
  %89 = load ptr, ptr %6, align 8, !tbaa !7
  %90 = getelementptr inbounds nuw %struct.nghttp2_session, ptr %89, i32 0, i32 49
  %91 = load i8, ptr %90, align 1, !tbaa !42
  %92 = zext i8 %91 to i32
  %93 = icmp ne i32 %92, 0
  br i1 %93, label %94, label %95

94:                                               ; preds = %87
  br label %97

95:                                               ; preds = %87
  %96 = load ptr, ptr %9, align 8, !tbaa !53
  br label %97

97:                                               ; preds = %95, %94
  %98 = phi ptr [ null, %94 ], [ %96, %95 ]
  %99 = call ptr @nghttp2_session_open_stream(ptr noundef %88, i32 noundef 1, i8 noundef zeroext 0, i32 noundef 1, ptr noundef %98)
  store ptr %99, ptr %10, align 8, !tbaa !43
  %100 = load ptr, ptr %10, align 8, !tbaa !43
  %101 = icmp eq ptr %100, null
  br i1 %101, label %102, label %103

102:                                              ; preds = %97
  store i32 -901, ptr %5, align 4
  store i32 1, ptr %16, align 4
  br label %123

103:                                              ; preds = %97
  %104 = load ptr, ptr %6, align 8, !tbaa !7
  %105 = getelementptr inbounds nuw %struct.nghttp2_session, ptr %104, i32 0, i32 49
  %106 = load i8, ptr %105, align 1, !tbaa !42
  %107 = icmp ne i8 %106, 0
  br i1 %107, label %108, label %114

108:                                              ; preds = %103
  %109 = load ptr, ptr %10, align 8, !tbaa !43
  call void @nghttp2_stream_shutdown(ptr noundef %109, i32 noundef 1)
  %110 = load ptr, ptr %6, align 8, !tbaa !7
  %111 = getelementptr inbounds nuw %struct.nghttp2_session, ptr %110, i32 0, i32 30
  store i32 1, ptr %111, align 8, !tbaa !138
  %112 = load ptr, ptr %6, align 8, !tbaa !7
  %113 = getelementptr inbounds nuw %struct.nghttp2_session, ptr %112, i32 0, i32 31
  store i32 1, ptr %113, align 4, !tbaa !10
  br label %122

114:                                              ; preds = %103
  %115 = load ptr, ptr %10, align 8, !tbaa !43
  call void @nghttp2_stream_shutdown(ptr noundef %115, i32 noundef 2)
  %116 = load ptr, ptr %6, align 8, !tbaa !7
  %117 = getelementptr inbounds nuw %struct.nghttp2_session, ptr %116, i32 0, i32 29
  store i32 1, ptr %117, align 4, !tbaa !167
  %118 = load ptr, ptr %6, align 8, !tbaa !7
  %119 = getelementptr inbounds nuw %struct.nghttp2_session, ptr %118, i32 0, i32 28
  %120 = load i32, ptr %119, align 8, !tbaa !56
  %121 = add i32 %120, 2
  store i32 %121, ptr %119, align 8, !tbaa !56
  br label %122

122:                                              ; preds = %114, %108
  store i32 0, ptr %5, align 4
  store i32 1, ptr %16, align 4
  br label %123

123:                                              ; preds = %122, %102, %85, %60, %52, %44, %39
  call void @llvm.lifetime.end.p0(i64 8, ptr %15) #10
  call void @llvm.lifetime.end.p0(i64 4, ptr %14) #10
  call void @llvm.lifetime.end.p0(i64 8, ptr %13) #10
  call void @llvm.lifetime.end.p0(i64 8, ptr %12) #10
  call void @llvm.lifetime.end.p0(i64 64, ptr %11) #10
  call void @llvm.lifetime.end.p0(i64 8, ptr %10) #10
  %124 = load i32, ptr %5, align 4
  ret i32 %124
}