; Function Attrs: nounwind uwtable
define internal fastcc i32 @nghttp2_session_upgrade_internal(ptr noundef %0, ptr noundef %1, i64 noundef %2, ptr noundef %3) unnamed_addr #1 {
  %5 = alloca %union.nghttp2_frame, align 8
  %6 = alloca ptr, align 8
  %7 = alloca i64, align 8
  call void @llvm.lifetime.start.p0(i64 64, ptr nonnull %5) #16
  call void @llvm.lifetime.start.p0(i64 8, ptr nonnull %6) #16
  call void @llvm.lifetime.start.p0(i64 8, ptr nonnull %7) #16
  %8 = getelementptr inbounds nuw i8, ptr %0, i64 2344
  %9 = getelementptr inbounds nuw i8, ptr %0, i64 2675
  %10 = load i8, ptr %9, align 1, !tbaa !37
  %.not = icmp eq i8 %10, 0
  br i1 %.not, label %11, label %14

11:                                               ; preds = %4
  %12 = getelementptr inbounds nuw i8, ptr %0, i64 2544
  %13 = load i32, ptr %12, align 8, !tbaa !45
  %.not34 = icmp eq i32 %13, 1
  br i1 %.not34, label %.thread, label %55

14:                                               ; preds = %4
  %15 = getelementptr inbounds nuw i8, ptr %0, i64 2552
  %16 = load i32, ptr %15, align 8, !tbaa !131
  %17 = icmp sgt i32 %16, 0
  br i1 %17, label %55, label %.thread

.thread:                                          ; preds = %11, %14
  %18 = urem i64 %2, 6
  %19 = udiv i64 %2, 6
  %.not36 = icmp eq i64 %18, 0
  br i1 %.not36, label %20, label %55

20:                                               ; preds = %.thread
  %21 = getelementptr inbounds nuw i8, ptr %0, i64 2520
  %22 = load i64, ptr %21, align 8, !tbaa !69
  %23 = icmp ugt i64 %19, %22
  br i1 %23, label %55, label %24

24:                                               ; preds = %20
  %25 = call i32 @nghttp2_frame_unpack_settings_payload2(ptr noundef nonnull %6, ptr noundef nonnull %7, ptr noundef %1, i64 noundef %2, ptr noundef nonnull %8) #16
  %.not37 = icmp eq i32 %25, 0
  br i1 %.not37, label %26, label %55

26:                                               ; preds = %24
  %27 = load i8, ptr %9, align 1, !tbaa !37
  %.not38 = icmp eq i8 %27, 0
  br i1 %.not38, label %34, label %28

28:                                               ; preds = %26
  call void @nghttp2_frame_hd_init(ptr noundef nonnull %5, i64 noundef %2, i8 noundef zeroext 4, i8 noundef zeroext 0, i32 noundef 0) #16
  %29 = load ptr, ptr %6, align 8, !tbaa !47
  %30 = getelementptr inbounds nuw i8, ptr %5, i64 24
  store ptr %29, ptr %30, align 8, !tbaa !113
  %31 = load i64, ptr %7, align 8, !tbaa !139
  %32 = getelementptr inbounds nuw i8, ptr %5, i64 16
  store i64 %31, ptr %32, align 8, !tbaa !113
  %33 = call i32 @nghttp2_session_on_settings_received(ptr noundef nonnull %0, ptr noundef nonnull %5, i32 noundef 1)
  br label %38

34:                                               ; preds = %26
  %35 = load ptr, ptr %6, align 8, !tbaa !47
  %36 = load i64, ptr %7, align 8, !tbaa !139
  %37 = call i32 @nghttp2_submit_settings(ptr noundef nonnull %0, i8 noundef zeroext 0, ptr noundef %35, i64 noundef %36) #16
  br label %38

38:                                               ; preds = %34, %28
  %.031 = phi i32 [ %33, %28 ], [ %37, %34 ]
  %39 = load ptr, ptr %6, align 8, !tbaa !47
  call void @nghttp2_mem_free(ptr noundef nonnull %8, ptr noundef %39) #16
  %.not39 = icmp eq i32 %.031, 0
  br i1 %.not39, label %40, label %55

40:                                               ; preds = %38
  %41 = load i8, ptr %9, align 1, !tbaa !37
  %.not40 = icmp eq i8 %41, 0
  %42 = select i1 %.not40, ptr %3, ptr null
  %43 = call ptr @nghttp2_session_open_stream(ptr noundef nonnull %0, i32 noundef 1, i8 noundef zeroext 0, i32 noundef 1, ptr noundef %42)
  %44 = icmp eq ptr %43, null
  br i1 %44, label %55, label %45

45:                                               ; preds = %40
  %46 = load i8, ptr %9, align 1, !tbaa !37
  %.not41 = icmp eq i8 %46, 0
  br i1 %.not41, label %50, label %47

47:                                               ; preds = %45
  call void @nghttp2_stream_shutdown(ptr noundef nonnull %43, i32 noundef 1) #16
  %48 = getelementptr inbounds nuw i8, ptr %0, i64 2552
  store i32 1, ptr %48, align 8, !tbaa !131
  %49 = getelementptr inbounds nuw i8, ptr %0, i64 2556
  store i32 1, ptr %49, align 4, !tbaa !35
  br label %55

50:                                               ; preds = %45
  call void @nghttp2_stream_shutdown(ptr noundef nonnull %43, i32 noundef 2) #16
  %51 = getelementptr inbounds nuw i8, ptr %0, i64 2548
  store i32 1, ptr %51, align 4, !tbaa !150
  %52 = getelementptr inbounds nuw i8, ptr %0, i64 2544
  %53 = load i32, ptr %52, align 8, !tbaa !45
  %54 = add i32 %53, 2
  store i32 %54, ptr %52, align 8, !tbaa !45
  br label %55

55:                                               ; preds = %47, %50, %40, %38, %24, %20, %.thread, %11, %14
  %.0 = phi i32 [ -505, %14 ], [ -505, %11 ], [ -501, %.thread ], [ -537, %20 ], [ %25, %24 ], [ %.031, %38 ], [ -901, %40 ], [ 0, %50 ], [ 0, %47 ]
  call void @llvm.lifetime.end.p0(i64 8, ptr nonnull %7) #16
  call void @llvm.lifetime.end.p0(i64 8, ptr nonnull %6) #16
  call void @llvm.lifetime.end.p0(i64 64, ptr nonnull %5) #16
  ret i32 %.0
}